target datalayout = "e-m:e-p270:32:32-p271:32:32-p272:64:64-i64:64-i128:128-f80:128-n8:16:32:64-S128"
target triple = "x86_64-unknown-linux-gnu"

%struct.Hmac = type { %union.wc_HmacHash, [36 x i32], [36 x i32], [16 x i32], ptr, i8, i8 }
%union.wc_HmacHash = type { %struct.wc_Sha3 }
%struct.wc_Sha3 = type { [25 x i64], [200 x i8], i8, ptr }

; Function Attrs: nounwind uwtable
define i32 @wc_HmacInit(ptr noundef %hmac, ptr noundef %heap, i32 noundef %devId) #0 {
entry:
  %retval = alloca i32, align 4
  %hmac.addr = alloca ptr, align 8
  %heap.addr = alloca ptr, align 8
  %devId.addr = alloca i32, align 4
  %ret = alloca i32, align 4
  store ptr %hmac, ptr %hmac.addr, align 8
  store ptr %heap, ptr %heap.addr, align 8
  store i32 %devId, ptr %devId.addr, align 4
  store i32 0, ptr %ret, align 4
  %0 = load ptr, ptr %hmac.addr, align 8
  %cmp = icmp eq ptr %0, null
  br i1 %cmp, label %if.then, label %if.end

if.then:                                          ; preds = %entry
  store i32 -173, ptr %retval, align 4
  br label %return

if.end:                                           ; preds = %entry
  %1 = load ptr, ptr %hmac.addr, align 8
  call void @llvm.memset.p0.i64(ptr align 16 %1, i8 0, i64 784, i1 false)
  %2 = load ptr, ptr %hmac.addr, align 8
  %macType = getelementptr inbounds %struct.Hmac, ptr %2, i32 0, i32 5
  store i8 0, ptr %macType, align 8
  %3 = load ptr, ptr %heap.addr, align 8
  %4 = load ptr, ptr %hmac.addr, align 8
  %heap1 = getelementptr inbounds %struct.Hmac, ptr %4, i32 0, i32 4
  store ptr %3, ptr %heap1, align 16
  %5 = load i32, ptr %ret, align 4
  store i32 %5, ptr %retval, align 4
  br label %return

return:                                           ; preds = %if.end, %if.then
  %6 = load i32, ptr %retval, align 4
  ret i32 %6
}

; Function Attrs: nounwind uwtable
define i32 @wc_HKDF_Extract_ex(i32 noundef %type, ptr noundef %salt, i32 noundef %saltSz, ptr noundef %inKey, i32 noundef %inKeySz, ptr noundef %out, ptr noundef %heap, i32 noundef %devId) #0 {
entry:
  %retval = alloca i32, align 4
  %type.addr = alloca i32, align 4
  %salt.addr = alloca ptr, align 8
  %saltSz.addr = alloca i32, align 4
  %inKey.addr = alloca ptr, align 8
  %inKeySz.addr = alloca i32, align 4
  %out.addr = alloca ptr, align 8
  %heap.addr = alloca ptr, align 8
  %devId.addr = alloca i32, align 4
  %tmp = alloca [64 x i8], align 16
  %myHmac = alloca [1 x %struct.Hmac], align 16
  %ret = alloca i32, align 4
  %localSalt = alloca ptr, align 8
  %hashSz = alloca i32, align 4
  store i32 %type, ptr %type.addr, align 4
  store ptr %salt, ptr %salt.addr, align 8
  store i32 %saltSz, ptr %saltSz.addr, align 4
  store ptr %inKey, ptr %inKey.addr, align 8
  store i32 %inKeySz, ptr %inKeySz.addr, align 4
  store ptr %out, ptr %out.addr, align 8
  store ptr %heap, ptr %heap.addr, align 8
  store i32 %devId, ptr %devId.addr, align 4
  %0 = load i32, ptr %type.addr, align 4
  %call = call i32 @wc_HmacSizeByType(i32 noundef %0)
  store i32 %call, ptr %ret, align 4
  %1 = load i32, ptr %ret, align 4
  %cmp = icmp slt i32 %1, 0
  br i1 %cmp, label %if.then, label %if.end

if.then:                                          ; preds = %entry
  %2 = load i32, ptr %ret, align 4
  store i32 %2, ptr %retval, align 4
  br label %return

if.end:                                           ; preds = %entry
  %3 = load i32, ptr %ret, align 4
  store i32 %3, ptr %hashSz, align 4
  %4 = load ptr, ptr %salt.addr, align 8
  store ptr %4, ptr %localSalt, align 8
  %5 = load ptr, ptr %localSalt, align 8
  %cmp1 = icmp eq ptr %5, null
  br i1 %cmp1, label %if.then2, label %if.end4

if.then2:                                         ; preds = %if.end
  %arraydecay = getelementptr inbounds [64 x i8], ptr %tmp, i64 0, i64 0
  %6 = load i32, ptr %hashSz, align 4
  %conv = zext i32 %6 to i64
  call void @llvm.memset.p0.i64(ptr align 16 %arraydecay, i8 0, i64 %conv, i1 false)
  %arraydecay3 = getelementptr inbounds [64 x i8], ptr %tmp, i64 0, i64 0
  store ptr %arraydecay3, ptr %localSalt, align 8
  %7 = load i32, ptr %hashSz, align 4
  store i32 %7, ptr %saltSz.addr, align 4
  br label %if.end4

if.end4:                                          ; preds = %if.then2, %if.end
  %arraydecay5 = getelementptr inbounds [1 x %struct.Hmac], ptr %myHmac, i64 0, i64 0
  %8 = load ptr, ptr %heap.addr, align 8
  %9 = load i32, ptr %devId.addr, align 4
  %call6 = call i32 @wc_HmacInit(ptr noundef %arraydecay5, ptr noundef %8, i32 noundef %9)
  store i32 %call6, ptr %ret, align 4
  %10 = load i32, ptr %ret, align 4
  %cmp7 = icmp eq i32 %10, 0
  br i1 %cmp7, label %if.then9, label %if.end25

if.then9:                                         ; preds = %if.end4
  %arraydecay10 = getelementptr inbounds [1 x %struct.Hmac], ptr %myHmac, i64 0, i64 0
  %11 = load i32, ptr %type.addr, align 4
  %12 = load ptr, ptr %localSalt, align 8
  %13 = load i32, ptr %saltSz.addr, align 4
  %call11 = call i32 @wc_HmacSetKey(ptr noundef %arraydecay10, i32 noundef %11, ptr noundef %12, i32 noundef %13)
  store i32 %call11, ptr %ret, align 4
  %14 = load i32, ptr %ret, align 4
  %cmp12 = icmp eq i32 %14, 0
  br i1 %cmp12, label %if.then14, label %if.end17

if.then14:                                        ; preds = %if.then9
  %arraydecay15 = getelementptr inbounds [1 x %struct.Hmac], ptr %myHmac, i64 0, i64 0
  %15 = load ptr, ptr %inKey.addr, align 8
  %16 = load i32, ptr %inKeySz.addr, align 4
  %call16 = call i32 @wc_HmacUpdate(ptr noundef %arraydecay15, ptr noundef %15, i32 noundef %16)
  store i32 %call16, ptr %ret, align 4
  br label %if.end17

if.end17:                                         ; preds = %if.then14, %if.then9
  %17 = load i32, ptr %ret, align 4
  %cmp18 = icmp eq i32 %17, 0
  br i1 %cmp18, label %if.then20, label %if.end23

if.then20:                                        ; preds = %if.end17
  %arraydecay21 = getelementptr inbounds [1 x %struct.Hmac], ptr %myHmac, i64 0, i64 0
  %18 = load ptr, ptr %out.addr, align 8
  %call22 = call i32 @wc_HmacFinal(ptr noundef %arraydecay21, ptr noundef %18)
  store i32 %call22, ptr %ret, align 4
  br label %if.end23

if.end23:                                         ; preds = %if.then20, %if.end17
  %arraydecay24 = getelementptr inbounds [1 x %struct.Hmac], ptr %myHmac, i64 0, i64 0
  call void @wc_HmacFree(ptr noundef %arraydecay24)
  br label %if.end25

if.end25:                                         ; preds = %if.end23, %if.end4
  %19 = load i32, ptr %ret, align 4
  store i32 %19, ptr %retval, align 4
  br label %return

return:                                           ; preds = %if.end25, %if.then
  %20 = load i32, ptr %retval, align 4
  ret i32 %20
}

; Function Attrs: nounwind uwtable
define i32 @wc_HKDF_Expand(i32 noundef %type, ptr noundef %inKey, i32 noundef %inKeySz, ptr noundef %info, i32 noundef %infoSz, ptr noundef %out, i32 noundef %outSz) #0 {
entry:
  %type.addr = alloca i32, align 4
  %inKey.addr = alloca ptr, align 8
  %inKeySz.addr = alloca i32, align 4
  %info.addr = alloca ptr, align 8
  %infoSz.addr = alloca i32, align 4
  %out.addr = alloca ptr, align 8
  %outSz.addr = alloca i32, align 4
  store i32 %type, ptr %type.addr, align 4
  store ptr %inKey, ptr %inKey.addr, align 8
  store i32 %inKeySz, ptr %inKeySz.addr, align 4
  store ptr %info, ptr %info.addr, align 8
  store i32 %infoSz, ptr %infoSz.addr, align 4
  store ptr %out, ptr %out.addr, align 8
  store i32 %outSz, ptr %outSz.addr, align 4
  %0 = load i32, ptr %type.addr, align 4
  %1 = load ptr, ptr %inKey.addr, align 8
  %2 = load i32, ptr %inKeySz.addr, align 4
  %3 = load ptr, ptr %info.addr, align 8
  %4 = load i32, ptr %infoSz.addr, align 4
  %5 = load ptr, ptr %out.addr, align 8
  %6 = load i32, ptr %outSz.addr, align 4
  %call = call i32 @wc_HKDF_Expand_ex(i32 noundef %0, ptr noundef %1, i32 noundef %2, ptr noundef %3, i32 noundef %4, ptr noundef %5, i32 noundef %6, ptr noundef null, i32 noundef -2)
  ret i32 %call
}

; Function Attrs: nounwind uwtable
define i32 @wc_HKDF_Extract(i32 noundef %type, ptr noundef %salt, i32 noundef %saltSz, ptr noundef %inKey, i32 noundef %inKeySz, ptr noundef %out) #0 {
entry:
  %type.addr = alloca i32, align 4
  %salt.addr = alloca ptr, align 8
  %saltSz.addr = alloca i32, align 4
  %inKey.addr = alloca ptr, align 8
  %inKeySz.addr = alloca i32, align 4
  %out.addr = alloca ptr, align 8
  store i32 %type, ptr %type.addr, align 4
  store ptr %salt, ptr %salt.addr, align 8
  store i32 %saltSz, ptr %saltSz.addr, align 4
  store ptr %inKey, ptr %inKey.addr, align 8
  store i32 %inKeySz, ptr %inKeySz.addr, align 4
  store ptr %out, ptr %out.addr, align 8
  %0 = load i32, ptr %type.addr, align 4
  %1 = load ptr, ptr %salt.addr, align 8
  %2 = load i32, ptr %saltSz.addr, align 4
  %3 = load ptr, ptr %inKey.addr, align 8
  %4 = load i32, ptr %inKeySz.addr, align 4
  %5 = load ptr, ptr %out.addr, align 8
  %call = call i32 @wc_HKDF_Extract_ex(i32 noundef %0, ptr noundef %1, i32 noundef %2, ptr noundef %3, i32 noundef %4, ptr noundef %5, ptr noundef null, i32 noundef -2)
  ret i32 %call
}

; Function Attrs: nounwind uwtable
define i32 @wc_HmacSizeByType(i32 noundef %type) #0 {
entry:
  %retval = alloca i32, align 4
  %type.addr = alloca i32, align 4
  %ret = alloca i32, align 4
  store i32 %type, ptr %type.addr, align 4
  %0 = load i32, ptr %type.addr, align 4
  %cmp = icmp eq i32 %0, 3
  br i1 %cmp, label %if.end, label %lor.lhs.false

lor.lhs.false:                                    ; preds = %entry
  %1 = load i32, ptr %type.addr, align 4
  %cmp1 = icmp eq i32 %1, 4
  br i1 %cmp1, label %if.end, label %lor.lhs.false2

lor.lhs.false2:                                   ; preds = %lor.lhs.false
  %2 = load i32, ptr %type.addr, align 4
  %cmp3 = icmp eq i32 %2, 5
  br i1 %cmp3, label %if.end, label %lor.lhs.false4

lor.lhs.false4:                                   ; preds = %lor.lhs.false2
  %3 = load i32, ptr %type.addr, align 4
  %cmp5 = icmp eq i32 %3, 6
  br i1 %cmp5, label %if.end, label %lor.lhs.false6

lor.lhs.false6:                                   ; preds = %lor.lhs.false4
  %4 = load i32, ptr %type.addr, align 4
  %cmp7 = icmp eq i32 %4, 7
  br i1 %cmp7, label %if.end, label %lor.lhs.false8

lor.lhs.false8:                                   ; preds = %lor.lhs.false6
  %5 = load i32, ptr %type.addr, align 4
  %cmp9 = icmp eq i32 %5, 8
  br i1 %cmp9, label %if.end, label %lor.lhs.false10

lor.lhs.false10:                                  ; preds = %lor.lhs.false8
  %6 = load i32, ptr %type.addr, align 4
  %cmp11 = icmp eq i32 %6, 10
  br i1 %cmp11, label %if.end, label %lor.lhs.false12

lor.lhs.false12:                                  ; preds = %lor.lhs.false10
  %7 = load i32, ptr %type.addr, align 4
  %cmp13 = icmp eq i32 %7, 11
  br i1 %cmp13, label %if.end, label %lor.lhs.false14

lor.lhs.false14:                                  ; preds = %lor.lhs.false12
  %8 = load i32, ptr %type.addr, align 4
  %cmp15 = icmp eq i32 %8, 12
  br i1 %cmp15, label %if.end, label %lor.lhs.false16

lor.lhs.false16:                                  ; preds = %lor.lhs.false14
  %9 = load i32, ptr %type.addr, align 4
  %cmp17 = icmp eq i32 %9, 13
  br i1 %cmp17, label %if.end, label %if.then

if.then:                                          ; preds = %lor.lhs.false16
  store i32 -173, ptr %retval, align 4
  br label %return

if.end:                                           ; preds = %lor.lhs.false16, %lor.lhs.false14, %lor.lhs.false12, %lor.lhs.false10, %lor.lhs.false8, %lor.lhs.false6, %lor.lhs.false4, %lor.lhs.false2, %lor.lhs.false, %entry
  %10 = load i32, ptr %type.addr, align 4
  switch i32 %10, label %sw.default [
    i32 3, label %sw.bb
    i32 4, label %sw.bb18
    i32 5, label %sw.bb19
    i32 6, label %sw.bb20
    i32 7, label %sw.bb21
    i32 8, label %sw.bb22
    i32 10, label %sw.bb23
    i32 11, label %sw.bb24
    i32 12, label %sw.bb25
    i32 13, label %sw.bb26
  ]

sw.bb:                                            ; preds = %if.end
  store i32 16, ptr %ret, align 4
  br label %sw.epilog

sw.bb18:                                          ; preds = %if.end
  store i32 20, ptr %ret, align 4
  br label %sw.epilog

sw.bb19:                                          ; preds = %if.end
  store i32 28, ptr %ret, align 4
  br label %sw.epilog

sw.bb20:                                          ; preds = %if.end
  store i32 32, ptr %ret, align 4
  br label %sw.epilog

sw.bb21:                                          ; preds = %if.end
  store i32 48, ptr %ret, align 4
  br label %sw.epilog

sw.bb22:                                          ; preds = %if.end
  store i32 64, ptr %ret, align 4
  br label %sw.epilog

sw.bb23:                                          ; preds = %if.end
  store i32 28, ptr %ret, align 4
  br label %sw.epilog

sw.bb24:                                          ; preds = %if.end
  store i32 32, ptr %ret, align 4
  br label %sw.epilog

sw.bb25:                                          ; preds = %if.end
  store i32 48, ptr %ret, align 4
  br label %sw.epilog

sw.bb26:                                          ; preds = %if.end
  store i32 64, ptr %ret, align 4
  br label %sw.epilog

sw.default:                                       ; preds = %if.end
  store i32 -173, ptr %ret, align 4
  br label %sw.epilog

sw.epilog:                                        ; preds = %sw.default, %sw.bb26, %sw.bb25, %sw.bb24, %sw.bb23, %sw.bb22, %sw.bb21, %sw.bb20, %sw.bb19, %sw.bb18, %sw.bb
  %11 = load i32, ptr %ret, align 4
  store i32 %11, ptr %retval, align 4
  br label %return

return:                                           ; preds = %sw.epilog, %if.then
  %12 = load i32, ptr %retval, align 4
  ret i32 %12
}

; Function Attrs: nounwind uwtable
define i32 @wc_HKDF(i32 noundef %type, ptr noundef %inKey, i32 noundef %inKeySz, ptr noundef %salt, i32 noundef %saltSz, ptr noundef %info, i32 noundef %infoSz, ptr noundef %out, i32 noundef %outSz) #0 {
entry:
  %retval = alloca i32, align 4
  %type.addr = alloca i32, align 4
  %inKey.addr = alloca ptr, align 8
  %inKeySz.addr = alloca i32, align 4
  %salt.addr = alloca ptr, align 8
  %saltSz.addr = alloca i32, align 4
  %info.addr = alloca ptr, align 8
  %infoSz.addr = alloca i32, align 4
  %out.addr = alloca ptr, align 8
  %outSz.addr = alloca i32, align 4
  %prk = alloca [64 x i8], align 16
  %hashSz = alloca i32, align 4
  %ret = alloca i32, align 4
  store i32 %type, ptr %type.addr, align 4
  store ptr %inKey, ptr %inKey.addr, align 8
  store i32 %inKeySz, ptr %inKeySz.addr, align 4
  store ptr %salt, ptr %salt.addr, align 8
  store i32 %saltSz, ptr %saltSz.addr, align 4
  store ptr %info, ptr %info.addr, align 8
  store i32 %infoSz, ptr %infoSz.addr, align 4
  store ptr %out, ptr %out.addr, align 8
  store i32 %outSz, ptr %outSz.addr, align 4
  %0 = load i32, ptr %type.addr, align 4
  %call = call i32 @wc_HmacSizeByType(i32 noundef %0)
  store i32 %call, ptr %ret, align 4
  %1 = load i32, ptr %ret, align 4
  %cmp = icmp slt i32 %1, 0
  br i1 %cmp, label %if.then, label %if.end

if.then:                                          ; preds = %entry
  %2 = load i32, ptr %ret, align 4
  store i32 %2, ptr %retval, align 4
  br label %return

if.end:                                           ; preds = %entry
  %3 = load i32, ptr %ret, align 4
  store i32 %3, ptr %hashSz, align 4
  %4 = load i32, ptr %type.addr, align 4
  %5 = load ptr, ptr %salt.addr, align 8
  %6 = load i32, ptr %saltSz.addr, align 4
  %7 = load ptr, ptr %inKey.addr, align 8
  %8 = load i32, ptr %inKeySz.addr, align 4
  %arraydecay = getelementptr inbounds [64 x i8], ptr %prk, i64 0, i64 0
  %call1 = call i32 @wc_HKDF_Extract(i32 noundef %4, ptr noundef %5, i32 noundef %6, ptr noundef %7, i32 noundef %8, ptr noundef %arraydecay)
  store i32 %call1, ptr %ret, align 4
  %9 = load i32, ptr %ret, align 4
  %cmp2 = icmp ne i32 %9, 0
  br i1 %cmp2, label %if.then3, label %if.end4

if.then3:                                         ; preds = %if.end
  %10 = load i32, ptr %ret, align 4
  store i32 %10, ptr %retval, align 4
  br label %return

if.end4:                                          ; preds = %if.end
  %11 = load i32, ptr %type.addr, align 4
  %arraydecay5 = getelementptr inbounds [64 x i8], ptr %prk, i64 0, i64 0
  %12 = load i32, ptr %hashSz, align 4
  %13 = load ptr, ptr %info.addr, align 8
  %14 = load i32, ptr %infoSz.addr, align 4
  %15 = load ptr, ptr %out.addr, align 8
  %16 = load i32, ptr %outSz.addr, align 4
  %call6 = call i32 @wc_HKDF_Expand(i32 noundef %11, ptr noundef %arraydecay5, i32 noundef %12, ptr noundef %13, i32 noundef %14, ptr noundef %15, i32 noundef %16)
  store i32 %call6, ptr %retval, align 4
  br label %return

return:                                           ; preds = %if.end4, %if.then3, %if.then
  %17 = load i32, ptr %retval, align 4
  ret i32 %17
}